; Function Attrs: mustprogress nofree norecurse nosync nounwind willreturn memory(argmem: write) uwtable
define void @_ZN9CvLevMarqC2Ev(ptr nocapture noundef nonnull writeonly align 8 dereferenceable(216) %0) unnamed_addr #3 align 2 personality ptr @__gxx_personality_v0 {
  %2 = getelementptr inbounds i8, ptr %0, i64 176
  store i32 0, ptr %2, align 8
  %3 = getelementptr inbounds i8, ptr %0, i64 184
  %4 = getelementptr inbounds i8, ptr %0, i64 160
  tail call void @llvm.memset.p0.i64(ptr noundef nonnull align 8 dereferenceable(160) %0, i8 0, i64 160, i1 false)
  tail call void @llvm.memset.p0.i64(ptr noundef nonnull align 8 dereferenceable(25) %3, i8 0, i64 25, i1 false)
  store <2 x double> <double 0x7FEFFFFFFFFFFFFF, double 0x7FEFFFFFFFFFFFFF>, ptr %4, align 8
  %5 = getelementptr inbounds i8, ptr %0, i64 212
  store i32 1, ptr %5, align 4
  ret void
}